target datalayout = "e-m:e-p270:32:32-p271:32:32-p272:64:64-i64:64-i128:128-f80:128-n8:16:32:64-S128"
target triple = "x86_64-pc-linux-gnu"

; Function Attrs: inlinehint nounwind willreturn memory(read) uwtable
define available_externally i32 @tolower(i32 noundef %0) #16 {
  %2 = alloca i32, align 4
  store i32 %0, ptr %2, align 4, !tbaa !44
  %3 = load i32, ptr %2, align 4, !tbaa !44
  %4 = icmp sge i32 %3, -128
  br i1 %4, label %5, label %15

5:                                                ; preds = %1
  %6 = load i32, ptr %2, align 4, !tbaa !44
  %7 = icmp slt i32 %6, 256
  br i1 %7, label %8, label %15

8:                                                ; preds = %5
  %9 = call ptr @__ctype_tolower_loc() #24
  %10 = load ptr, ptr %9, align 8, !tbaa !126
  %11 = load i32, ptr %2, align 4, !tbaa !44
  %12 = sext i32 %11 to i64
  %13 = getelementptr inbounds i32, ptr %10, i64 %12
  %14 = load i32, ptr %13, align 4, !tbaa !44
  br label %17

15:                                               ; preds = %5, %1
  %16 = load i32, ptr %2, align 4, !tbaa !44
  br label %17

17:                                               ; preds = %15, %8
  %18 = phi i32 [ %14, %8 ], [ %16, %15 ]
  ret i32 %18
}

; Function Attrs: nounwind uwtable
define dso_local i32 @zend_binary_strcasecmp_l(ptr noundef %0, i64 noundef %1, ptr noundef %2, i64 noundef %3) #0 {
  %5 = alloca i32, align 4
  %6 = alloca ptr, align 8
  %7 = alloca i64, align 8
  %8 = alloca ptr, align 8
  %9 = alloca i64, align 8
  %10 = alloca i64, align 8
  %11 = alloca i32, align 4
  %12 = alloca i32, align 4
  %13 = alloca i32, align 4
  %14 = alloca i32, align 4
  %15 = alloca i32, align 4
  %16 = alloca i32, align 4
  %17 = alloca i32, align 4
  store ptr %0, ptr %6, align 8, !tbaa !4
  store i64 %1, ptr %7, align 8, !tbaa !9
  store ptr %2, ptr %8, align 8, !tbaa !4
  store i64 %3, ptr %9, align 8, !tbaa !9
  call void @llvm.lifetime.start.p0(i64 8, ptr %10) #20
  call void @llvm.lifetime.start.p0(i64 4, ptr %11) #20
  call void @llvm.lifetime.start.p0(i64 4, ptr %12) #20
  %18 = load ptr, ptr %6, align 8, !tbaa !4
  %19 = load ptr, ptr %8, align 8, !tbaa !4
  %20 = icmp eq ptr %18, %19
  br i1 %20, label %21, label %22

21:                                               ; preds = %4
  store i32 0, ptr %5, align 4
  store i32 1, ptr %13, align 4
  br label %71

22:                                               ; preds = %4
  %23 = load i64, ptr %7, align 8, !tbaa !9
  %24 = load i64, ptr %9, align 8, !tbaa !9
  %25 = icmp ult i64 %23, %24
  br i1 %25, label %26, label %28

26:                                               ; preds = %22
  %27 = load i64, ptr %7, align 8, !tbaa !9
  br label %30

28:                                               ; preds = %22
  %29 = load i64, ptr %9, align 8, !tbaa !9
  br label %30

30:                                               ; preds = %28, %26
  %31 = phi i64 [ %27, %26 ], [ %29, %28 ]
  store i64 %31, ptr %10, align 8, !tbaa !9
  br label %32

32:                                               ; preds = %58, %30
  %33 = load i64, ptr %10, align 8, !tbaa !9
  %34 = add i64 %33, -1
  store i64 %34, ptr %10, align 8, !tbaa !9
  %35 = icmp ne i64 %33, 0
  br i1 %35, label %36, label %59

36:                                               ; preds = %32
  call void @llvm.lifetime.start.p0(i64 4, ptr %14) #20
  %37 = load ptr, ptr %6, align 8, !tbaa !4
  %38 = getelementptr inbounds nuw i8, ptr %37, i32 1
  store ptr %38, ptr %6, align 8, !tbaa !4
  %39 = load i8, ptr %37, align 1, !tbaa !11
  %40 = zext i8 %39 to i32
  %41 = call i32 @tolower(i32 noundef %40) #19
  store i32 %41, ptr %14, align 4, !tbaa !44
  %42 = load i32, ptr %14, align 4, !tbaa !44
  store i32 %42, ptr %15, align 4, !tbaa !44
  call void @llvm.lifetime.end.p0(i64 4, ptr %14) #20
  %43 = load i32, ptr %15, align 4, !tbaa !44
  store i32 %43, ptr %11, align 4, !tbaa !44
  call void @llvm.lifetime.start.p0(i64 4, ptr %16) #20
  %44 = load ptr, ptr %8, align 8, !tbaa !4
  %45 = getelementptr inbounds nuw i8, ptr %44, i32 1
  store ptr %45, ptr %8, align 8, !tbaa !4
  %46 = load i8, ptr %44, align 1, !tbaa !11
  %47 = zext i8 %46 to i32
  %48 = call i32 @tolower(i32 noundef %47) #19
  store i32 %48, ptr %16, align 4, !tbaa !44
  %49 = load i32, ptr %16, align 4, !tbaa !44
  store i32 %49, ptr %17, align 4, !tbaa !44
  call void @llvm.lifetime.end.p0(i64 4, ptr %16) #20
  %50 = load i32, ptr %17, align 4, !tbaa !44
  store i32 %50, ptr %12, align 4, !tbaa !44
  %51 = load i32, ptr %11, align 4, !tbaa !44
  %52 = load i32, ptr %12, align 4, !tbaa !44
  %53 = icmp ne i32 %51, %52
  br i1 %53, label %54, label %58

54:                                               ; preds = %36
  %55 = load i32, ptr %11, align 4, !tbaa !44
  %56 = load i32, ptr %12, align 4, !tbaa !44
  %57 = sub nsw i32 %55, %56
  store i32 %57, ptr %5, align 4
  store i32 1, ptr %13, align 4
  br label %71

58:                                               ; preds = %36
  br label %32

59:                                               ; preds = %32
  %60 = load i64, ptr %7, align 8, !tbaa !9
  %61 = load i64, ptr %9, align 8, !tbaa !9
  %62 = icmp eq i64 %60, %61
  br i1 %62, label %63, label %64

63:                                               ; preds = %59
  br label %69

64:                                               ; preds = %59
  %65 = load i64, ptr %7, align 8, !tbaa !9
  %66 = load i64, ptr %9, align 8, !tbaa !9
  %67 = icmp ult i64 %65, %66
  %68 = select i1 %67, i32 -1, i32 1
  br label %69

69:                                               ; preds = %64, %63
  %70 = phi i32 [ 0, %63 ], [ %68, %64 ]
  store i32 %70, ptr %5, align 4
  store i32 1, ptr %13, align 4
  br label %71

71:                                               ; preds = %69, %54, %21
  call void @llvm.lifetime.end.p0(i64 4, ptr %12) #20
  call void @llvm.lifetime.end.p0(i64 4, ptr %11) #20
  call void @llvm.lifetime.end.p0(i64 8, ptr %10) #20
  %72 = load i32, ptr %5, align 4
  ret i32 %72
}