; Function Attrs: nofree nosync nounwind memory(read, inaccessiblemem: none) uwtable
define dso_local i32 @zend_binary_strcasecmp_l(ptr noundef readonly captures(address) %0, i64 noundef %1, ptr noundef readonly captures(address) %2, i64 noundef %3) local_unnamed_addr #18 {
  %5 = icmp eq ptr %0, %2
  br i1 %5, label %26, label %6

6:                                                ; preds = %4
  %7 = tail call i64 @llvm.umin.i64(i64 %1, i64 %3)
  br label %8

8:                                                ; preds = %tolower.exit, %6
  %.023 = phi i64 [ %7, %6 ], [ %9, %tolower.exit ]
  %.022 = phi ptr [ %2, %6 ], [ %17, %tolower.exit ]
  %.021 = phi ptr [ %0, %6 ], [ %10, %tolower.exit ]
  %.not = icmp eq i64 %.023, 0
  br i1 %.not, label %24, label %tolower.exit

tolower.exit:                                     ; preds = %8
  %9 = add i64 %.023, -1
  %10 = getelementptr inbounds nuw i8, ptr %.021, i64 1
  %11 = load i8, ptr %.021, align 1, !tbaa !4
  %12 = tail call ptr @__ctype_tolower_loc() #33
  %13 = load ptr, ptr %12, align 8, !tbaa !131
  %14 = zext i8 %11 to i64
  %15 = getelementptr inbounds nuw i32, ptr %13, i64 %14
  %16 = load i32, ptr %15, align 4, !tbaa !95
  %17 = getelementptr inbounds nuw i8, ptr %.022, i64 1
  %18 = load i8, ptr %.022, align 1, !tbaa !4
  %19 = zext i8 %18 to i64
  %20 = getelementptr inbounds nuw i32, ptr %13, i64 %19
  %21 = load i32, ptr %20, align 4, !tbaa !95
  %.not28 = icmp eq i32 %16, %21
  br i1 %.not28, label %8, label %22

22:                                               ; preds = %tolower.exit
  %23 = sub nsw i32 %16, %21
  br label %26

24:                                               ; preds = %8
  %25 = tail call i32 @llvm.ucmp.i32.i64(i64 %1, i64 %3)
  br label %26

26:                                               ; preds = %4, %24, %22
  %.0 = phi i32 [ %23, %22 ], [ %25, %24 ], [ 0, %4 ]
  ret i32 %.0
}